; Function Attrs: nounwind uwtable
define ptr @l_Lean_FileMap_getLine(ptr noundef readonly captures(none) %0, ptr noundef %1) local_unnamed_addr #0 {
  %3 = ptrtoint ptr %1 to i64
  %4 = and i64 %3, 1
  %.not = icmp eq i64 %4, 0
  br i1 %.not, label %.critedge.i, label %5, !prof !15

5:                                                ; preds = %2
  %6 = lshr i64 %3, 1
  %7 = add nuw i64 %6, 1
  %8 = icmp sgt i64 %7, -1
  br i1 %8, label %9, label %13, !prof !12

9:                                                ; preds = %5
  %10 = shl nuw i64 %7, 1
  %11 = or disjoint i64 %10, 1
  %12 = inttoptr i64 %11 to ptr
  br label %lean_nat_add.exit

13:                                               ; preds = %5
  %14 = tail call ptr @lean_big_usize_to_nat(i64 noundef range(i64 0, -1) %7) #6
  br label %lean_nat_add.exit

.critedge.i:                                      ; preds = %2
  %15 = tail call ptr @lean_nat_big_add(ptr noundef %1, ptr noundef nonnull inttoptr (i64 3 to ptr)) #6
  br label %lean_nat_add.exit

lean_nat_add.exit:                                ; preds = %13, %9, %.critedge.i
  %.0.i = phi ptr [ %15, %.critedge.i ], [ %12, %9 ], [ %14, %13 ]
  %16 = getelementptr inbounds nuw i8, ptr %0, i64 16
  %17 = load ptr, ptr %16, align 8, !tbaa !4
  %18 = getelementptr i8, ptr %17, i64 8
  %.val.i = load i64, ptr %18, align 8, !tbaa !13
  %19 = and i64 %.val.i, 9223372036854775807
  %20 = icmp eq i64 %19, 0
  %21 = shl i64 %.val.i, 1
  %22 = add i64 %21, -1
  %23 = inttoptr i64 %22 to ptr
  %.1.i.i = select i1 %20, ptr inttoptr (i64 1 to ptr), ptr %23
  %24 = ptrtoint ptr %.0.i to i64
  %25 = and i64 %24, 1
  %.not19 = icmp eq i64 %25, 0
  br i1 %.not19, label %lean_nat_le.exit.thread17, label %lean_nat_le.exit.thread, !prof !15

lean_nat_le.exit.thread17:                        ; preds = %lean_nat_add.exit
  %26 = tail call zeroext i1 @lean_nat_big_le(ptr noundef %.0.i, ptr noundef nonnull %.1.i.i) #6
  br i1 %26, label %34, label %27

lean_nat_le.exit.thread:                          ; preds = %lean_nat_add.exit
  %.not20 = icmp ugt ptr %.0.i, %.1.i.i
  br i1 %.not20, label %lean_dec.exit10, label %34

27:                                               ; preds = %lean_nat_le.exit.thread17
  %28 = load i32, ptr %.0.i, align 4, !tbaa !9
  %29 = icmp sgt i32 %28, 1
  br i1 %29, label %30, label %32, !prof !12

30:                                               ; preds = %27
  %31 = add nsw i32 %28, -1
  store i32 %31, ptr %.0.i, align 4, !tbaa !9
  br label %lean_dec.exit10

32:                                               ; preds = %27
  %.not.i = icmp eq i32 %28, 0
  br i1 %.not.i, label %lean_dec.exit10, label %33

33:                                               ; preds = %32
  tail call void @lean_dec_ref_cold(ptr noundef nonnull %.0.i) #6
  br label %lean_dec.exit10

34:                                               ; preds = %lean_nat_le.exit.thread17, %lean_nat_le.exit.thread
  br label %lean_dec.exit10

lean_dec.exit10:                                  ; preds = %34, %lean_nat_le.exit.thread, %30, %32, %33
  %.0 = phi ptr [ %.1.i.i, %33 ], [ %.1.i.i, %32 ], [ %.1.i.i, %30 ], [ %.0.i, %34 ], [ %.1.i.i, %lean_nat_le.exit.thread ]
  ret ptr %.0
}